
_main:

;MyProject.c,22 :: 		void main() {
;MyProject.c,24 :: 		ADCON1 = 0x0F;
	MOVLW       15
	MOVWF       ADCON1+0 
;MyProject.c,25 :: 		delay_ms(10);
	MOVLW       65
	MOVWF       R12, 0
	MOVLW       238
	MOVWF       R13, 0
L_main0:
	DECFSZ      R13, 1, 1
	BRA         L_main0
	DECFSZ      R12, 1, 1
	BRA         L_main0
	NOP
;MyProject.c,26 :: 		lcd_init();
	CALL        _Lcd_Init+0, 0
;MyProject.c,27 :: 		delay_ms(100);
	MOVLW       3
	MOVWF       R11, 0
	MOVLW       138
	MOVWF       R12, 0
	MOVLW       85
	MOVWF       R13, 0
L_main1:
	DECFSZ      R13, 1, 1
	BRA         L_main1
	DECFSZ      R12, 1, 1
	BRA         L_main1
	DECFSZ      R11, 1, 1
	BRA         L_main1
	NOP
	NOP
;MyProject.c,28 :: 		lcd_cmd(_LCD_TURN_ON);
	MOVLW       12
	MOVWF       FARG_Lcd_Cmd_out_char+0 
	CALL        _Lcd_Cmd+0, 0
;MyProject.c,29 :: 		delay_ms(100);
	MOVLW       3
	MOVWF       R11, 0
	MOVLW       138
	MOVWF       R12, 0
	MOVLW       85
	MOVWF       R13, 0
L_main2:
	DECFSZ      R13, 1, 1
	BRA         L_main2
	DECFSZ      R12, 1, 1
	BRA         L_main2
	DECFSZ      R11, 1, 1
	BRA         L_main2
	NOP
	NOP
;MyProject.c,30 :: 		lcd_cmd(_LCD_CLEAR);
	MOVLW       1
	MOVWF       FARG_Lcd_Cmd_out_char+0 
	CALL        _Lcd_Cmd+0, 0
;MyProject.c,31 :: 		delay_ms(100);
	MOVLW       3
	MOVWF       R11, 0
	MOVLW       138
	MOVWF       R12, 0
	MOVLW       85
	MOVWF       R13, 0
L_main3:
	DECFSZ      R13, 1, 1
	BRA         L_main3
	DECFSZ      R12, 1, 1
	BRA         L_main3
	DECFSZ      R11, 1, 1
	BRA         L_main3
	NOP
	NOP
;MyProject.c,32 :: 		lcd_cmd(_LCD_BLINK_CURSOR_ON);
	MOVLW       15
	MOVWF       FARG_Lcd_Cmd_out_char+0 
	CALL        _Lcd_Cmd+0, 0
;MyProject.c,33 :: 		delay_ms(100);
	MOVLW       3
	MOVWF       R11, 0
	MOVLW       138
	MOVWF       R12, 0
	MOVLW       85
	MOVWF       R13, 0
L_main4:
	DECFSZ      R13, 1, 1
	BRA         L_main4
	DECFSZ      R12, 1, 1
	BRA         L_main4
	DECFSZ      R11, 1, 1
	BRA         L_main4
	NOP
	NOP
;MyProject.c,34 :: 		lcd_cmd(_LCD_RETURN_HOME);
	MOVLW       2
	MOVWF       FARG_Lcd_Cmd_out_char+0 
	CALL        _Lcd_Cmd+0, 0
;MyProject.c,36 :: 		lcd_out(1,1,"Testing");
	MOVLW       1
	MOVWF       FARG_Lcd_Out_row+0 
	MOVLW       1
	MOVWF       FARG_Lcd_Out_column+0 
	MOVLW       ?lstr1_MyProject+0
	MOVWF       FARG_Lcd_Out_text+0 
	MOVLW       hi_addr(?lstr1_MyProject+0)
	MOVWF       FARG_Lcd_Out_text+1 
	CALL        _Lcd_Out+0, 0
;MyProject.c,40 :: 		}
L_end_main:
	GOTO        $+0
; end of _main
